target datalayout = "e-m:e-p270:32:32-p271:32:32-p272:64:64-i64:64-i128:128-f80:128-n8:16:32:64-S128"
target triple = "x86_64-pc-linux-gnu"

%struct.VuDev = type { i32, i32, ptr, ptr, %struct.VuDevInflightInfo, i32, %union.pthread_mutex_t, i32, i64, ptr, i64, i64, i8, i16, ptr, ptr, ptr, ptr, ptr, i32, i8 }
%struct.VuDevInflightInfo = type { i32, ptr, i64 }
%union.pthread_mutex_t = type { %struct.__pthread_mutex_s }
%struct.__pthread_mutex_s = type { i32, i32, i32, i32, i32, i16, i16, %struct.__pthread_internal_list }
%struct.__pthread_internal_list = type { ptr, ptr }
%struct.VhostUserMsg = type <{ i32, i32, i32, %union.anon, [8 x i32], i32, ptr }>
%union.anon = type { %struct.VhostUserMemory, [8 x i8] }
%struct.VhostUserMemory = type { i32, i32, [8 x %struct.VhostUserMemoryRegion] }
%struct.VhostUserMemoryRegion = type { i64, i64, i64, i64 }
%struct.VuDevIface = type { ptr, ptr, ptr, ptr, ptr, ptr, ptr, ptr, ptr, ptr }
%struct.uffdio_api = type { i64, i64, i64 }

; Function Attrs: nounwind uwtable
define internal void @vmsg_set_reply_u64(ptr noundef %0, i64 noundef %1) #0 {
  %3 = alloca ptr, align 8
  %4 = alloca i64, align 8
  store ptr %0, ptr %3, align 8
  store i64 %1, ptr %4, align 8
  %5 = load ptr, ptr %3, align 8
  %6 = getelementptr inbounds nuw %struct.VhostUserMsg, ptr %5, i32 0, i32 1
  store i32 0, ptr %6, align 1
  %7 = load ptr, ptr %3, align 8
  %8 = getelementptr inbounds nuw %struct.VhostUserMsg, ptr %7, i32 0, i32 2
  store i32 8, ptr %8, align 1
  %9 = load i64, ptr %4, align 8
  %10 = load ptr, ptr %3, align 8
  %11 = getelementptr inbounds nuw %struct.VhostUserMsg, ptr %10, i32 0, i32 3
  store i64 %9, ptr %11, align 1
  %12 = load ptr, ptr %3, align 8
  %13 = getelementptr inbounds nuw %struct.VhostUserMsg, ptr %12, i32 0, i32 5
  store i32 0, ptr %13, align 1
  ret void
}

; Function Attrs: nounwind uwtable
define internal zeroext i1 @have_userfault() #0 {
  %1 = alloca i1, align 1
  %2 = alloca i32, align 4
  %3 = alloca %struct.uffdio_api, align 8
  %4 = alloca i32, align 4
  call void @llvm.lifetime.start.p0(i64 4, ptr %2) #13
  %5 = call i64 (i64, ...) @syscall(i64 noundef 323, i32 noundef 526336) #13
  %6 = trunc i64 %5 to i32
  store i32 %6, ptr %2, align 4
  call void @llvm.lifetime.start.p0(i64 24, ptr %3) #13
  call void @llvm.memset.p0.i64(ptr align 8 %3, i8 0, i64 24, i1 false), !annotation !4
  %7 = load i32, ptr %2, align 4
  %8 = icmp slt i32 %7, 0
  br i1 %8, label %9, label %10

9:                                                ; preds = %0
  store i1 false, ptr %1, align 1
  store i32 1, ptr %4, align 4
  br label %22

10:                                               ; preds = %0
  %11 = getelementptr inbounds nuw %struct.uffdio_api, ptr %3, i32 0, i32 0
  store i64 170, ptr %11, align 8
  %12 = getelementptr inbounds nuw %struct.uffdio_api, ptr %3, i32 0, i32 1
  store i64 48, ptr %12, align 8
  %13 = load i32, ptr %2, align 4
  %14 = call i32 (i32, i64, ...) @ioctl(i32 noundef %13, i64 noundef 3222841919, ptr noundef %3) #13
  %15 = icmp ne i32 %14, 0
  br i1 %15, label %16, label %19

16:                                               ; preds = %10
  %17 = load i32, ptr %2, align 4
  %18 = call i32 @close(i32 noundef %17)
  store i1 false, ptr %1, align 1
  store i32 1, ptr %4, align 4
  br label %22

19:                                               ; preds = %10
  %20 = load i32, ptr %2, align 4
  %21 = call i32 @close(i32 noundef %20)
  store i1 true, ptr %1, align 1
  store i32 1, ptr %4, align 4
  br label %22

22:                                               ; preds = %19, %16, %9
  call void @llvm.lifetime.end.p0(i64 24, ptr %3) #13
  call void @llvm.lifetime.end.p0(i64 4, ptr %2) #13
  %23 = load i1, ptr %1, align 1
  ret i1 %23
}

; Function Attrs: nounwind uwtable
define internal zeroext i1 @vu_get_protocol_features_exec(ptr noundef %0, ptr noundef %1) #0 {
  %3 = alloca ptr, align 8
  %4 = alloca ptr, align 8
  %5 = alloca i64, align 8
  store ptr %0, ptr %3, align 8
  store ptr %1, ptr %4, align 8
  call void @llvm.lifetime.start.p0(i64 8, ptr %5) #13
  store i64 35883, ptr %5, align 8
  %6 = call zeroext i1 @have_userfault()
  br i1 %6, label %7, label %10

7:                                                ; preds = %2
  %8 = load i64, ptr %5, align 8
  %9 = or i64 %8, 256
  store i64 %9, ptr %5, align 8
  br label %10

10:                                               ; preds = %7, %2
  %11 = load ptr, ptr %3, align 8
  %12 = getelementptr inbounds nuw %struct.VuDev, ptr %11, i32 0, i32 18
  %13 = load ptr, ptr %12, align 8
  %14 = getelementptr inbounds nuw %struct.VuDevIface, ptr %13, i32 0, i32 7
  %15 = load ptr, ptr %14, align 8
  %16 = icmp ne ptr %15, null
  br i1 %16, label %17, label %27

17:                                               ; preds = %10
  %18 = load ptr, ptr %3, align 8
  %19 = getelementptr inbounds nuw %struct.VuDev, ptr %18, i32 0, i32 18
  %20 = load ptr, ptr %19, align 8
  %21 = getelementptr inbounds nuw %struct.VuDevIface, ptr %20, i32 0, i32 8
  %22 = load ptr, ptr %21, align 8
  %23 = icmp ne ptr %22, null
  br i1 %23, label %24, label %27

24:                                               ; preds = %17
  %25 = load i64, ptr %5, align 8
  %26 = or i64 %25, 512
  store i64 %26, ptr %5, align 8
  br label %27

27:                                               ; preds = %24, %17, %10
  %28 = load ptr, ptr %3, align 8
  %29 = getelementptr inbounds nuw %struct.VuDev, ptr %28, i32 0, i32 18
  %30 = load ptr, ptr %29, align 8
  %31 = getelementptr inbounds nuw %struct.VuDevIface, ptr %30, i32 0, i32 2
  %32 = load ptr, ptr %31, align 8
  %33 = icmp ne ptr %32, null
  br i1 %33, label %34, label %44

34:                                               ; preds = %27
  %35 = load ptr, ptr %3, align 8
  %36 = getelementptr inbounds nuw %struct.VuDev, ptr %35, i32 0, i32 18
  %37 = load ptr, ptr %36, align 8
  %38 = getelementptr inbounds nuw %struct.VuDevIface, ptr %37, i32 0, i32 2
  %39 = load ptr, ptr %38, align 8
  %40 = load ptr, ptr %3, align 8
  %41 = call i64 %39(ptr noundef %40)
  %42 = load i64, ptr %5, align 8
  %43 = or i64 %42, %41
  store i64 %43, ptr %5, align 8
  br label %44

44:                                               ; preds = %34, %27
  %45 = load ptr, ptr %4, align 8
  %46 = load i64, ptr %5, align 8
  call void @vmsg_set_reply_u64(ptr noundef %45, i64 noundef %46)
  call void @llvm.lifetime.end.p0(i64 8, ptr %5) #13
  ret i1 true
}