; Function Attrs: nounwind uwtable
define internal fastcc void @vu_get_protocol_features_exec(ptr noundef %0, ptr noundef nonnull writeonly captures(none) initializes((4, 20), (316, 320)) %1) unnamed_addr #3 {
  %3 = alloca %struct.uffdio_api, align 8
  %4 = tail call i64 (i64, ...) @syscall(i64 noundef 323, i32 noundef 526336) #21
  %5 = trunc i64 %4 to i32
  call void @llvm.lifetime.start.p0(i64 24, ptr nonnull %3) #21
  %6 = icmp slt i32 %5, 0
  br i1 %6, label %have_userfault.exit.thread, label %have_userfault.exit

have_userfault.exit.thread:                       ; preds = %2
  call void @llvm.lifetime.end.p0(i64 24, ptr nonnull %3) #21
  br label %11

have_userfault.exit:                              ; preds = %2
  %7 = getelementptr inbounds nuw i8, ptr %3, i64 16
  store i64 0, ptr %7, align 8, !annotation !4
  store i64 170, ptr %3, align 8
  %8 = getelementptr inbounds nuw i8, ptr %3, i64 8
  store i64 48, ptr %8, align 8
  %9 = call i32 (i32, i64, ...) @ioctl(i32 noundef %5, i64 noundef 3222841919, ptr noundef nonnull %3) #21
  %.fr = freeze i32 %9
  %.not.i = icmp eq i32 %.fr, 0
  %10 = call i32 @close(i32 noundef %5) #21
  call void @llvm.lifetime.end.p0(i64 24, ptr nonnull %3) #21
  %spec.select = select i1 %.not.i, i64 36139, i64 35883
  br label %11

11:                                               ; preds = %have_userfault.exit, %have_userfault.exit.thread
  %12 = phi i64 [ 35883, %have_userfault.exit.thread ], [ %spec.select, %have_userfault.exit ]
  %13 = getelementptr inbounds nuw i8, ptr %0, i64 176
  %14 = load ptr, ptr %13, align 8
  %15 = getelementptr inbounds nuw i8, ptr %14, i64 56
  %16 = load ptr, ptr %15, align 8
  %.not = icmp eq ptr %16, null
  br i1 %.not, label %21, label %17

17:                                               ; preds = %11
  %18 = getelementptr inbounds nuw i8, ptr %14, i64 64
  %19 = load ptr, ptr %18, align 8
  %.not10 = icmp eq ptr %19, null
  %20 = or disjoint i64 %12, 512
  %spec.select12 = select i1 %.not10, i64 %12, i64 %20
  br label %21

21:                                               ; preds = %17, %11
  %.1 = phi i64 [ %12, %11 ], [ %spec.select12, %17 ]
  %22 = getelementptr inbounds nuw i8, ptr %14, i64 16
  %23 = load ptr, ptr %22, align 8
  %.not11 = icmp eq ptr %23, null
  br i1 %.not11, label %27, label %24

24:                                               ; preds = %21
  %25 = call i64 %23(ptr noundef nonnull %0) #21
  %26 = or i64 %25, %.1
  br label %27

27:                                               ; preds = %24, %21
  %.2 = phi i64 [ %26, %24 ], [ %.1, %21 ]
  %28 = getelementptr inbounds nuw i8, ptr %1, i64 4
  store i32 0, ptr %28, align 1
  %29 = getelementptr inbounds nuw i8, ptr %1, i64 8
  store i32 8, ptr %29, align 1
  %30 = getelementptr inbounds nuw i8, ptr %1, i64 12
  store i64 %.2, ptr %30, align 1
  %31 = getelementptr inbounds nuw i8, ptr %1, i64 316
  store i32 0, ptr %31, align 1
  ret void
}